; Function Attrs: mustprogress uwtable
define noundef zeroext i1 @_ZN7rocksdb26TransactionLogIteratorImpl14RestrictedReadEPNS_5SliceE(ptr noundef nonnull align 8 dereferenceable(208) %this, ptr noundef %record) local_unnamed_addr #2 align 2 personality ptr @__gxx_personality_v0 {
entry:
  %current_last_seq_ = getelementptr inbounds i8, ptr %this, i64 200
  %0 = load i64, ptr %current_last_seq_, align 8
  %versions_ = getelementptr inbounds i8, ptr %this, i64 56
  %1 = load ptr, ptr %versions_, align 8
  %last_sequence_.i = getelementptr inbounds i8, ptr %1, i64 264
  %2 = load atomic i64, ptr %last_sequence_.i acquire, align 8
  %cmp.not = icmp ult i64 %0, %2
  br i1 %cmp.not, label %if.end, label %return

if.end:                                           ; preds = %entry
  %current_log_reader_ = getelementptr inbounds i8, ptr %this, i64 128
  %3 = load ptr, ptr %current_log_reader_, align 8
  %scratch_ = getelementptr inbounds i8, ptr %this, i64 136
  %vtable = load ptr, ptr %3, align 8
  %vfn = getelementptr inbounds i8, ptr %vtable, i64 16
  %4 = load ptr, ptr %vfn, align 8
  %call3 = tail call noundef zeroext i1 %4(ptr noundef nonnull align 8 dereferenceable(240) %3, ptr noundef %record, ptr noundef nonnull %scratch_, i8 noundef signext 0, ptr noundef null)
  br label %return

return:                                           ; preds = %entry, %if.end
  %retval.0 = phi i1 [ %call3, %if.end ], [ false, %entry ]
  ret i1 %retval.0
}